; Function Attrs: nounwind uwtable
define internal fastcc range(i32 -1, 1) i32 @obj2ast_string(ptr noundef %0, ptr noundef nonnull writeonly captures(none) %1, ptr noundef %2) unnamed_addr #0 {
  %4 = getelementptr i8, ptr %0, i64 8
  %.val7 = load ptr, ptr %4, align 8, !tbaa !133
  %.not = icmp eq ptr %.val7, @PyUnicode_Type
  %.not1 = icmp eq ptr %.val7, @PyBytes_Type
  %or.cond = or i1 %.not, %.not1
  br i1 %or.cond, label %7, label %5

5:                                                ; preds = %3
  %6 = load ptr, ptr @PyExc_TypeError, align 8, !tbaa !4
  tail call void @PyErr_SetString(ptr noundef %6, ptr noundef nonnull @.str.572) #8
  br label %17

7:                                                ; preds = %3
  %8 = icmp eq ptr %0, @_Py_NoneStruct
  br i1 %8, label %obj2ast_object.exit, label %9

9:                                                ; preds = %7
  %10 = tail call i32 @_PyArena_AddPyObject(ptr noundef %2, ptr noundef %0) #8
  %11 = icmp slt i32 %10, 0
  br i1 %11, label %obj2ast_object.exit, label %12

12:                                               ; preds = %9
  %13 = load i32, ptr %0, align 8, !tbaa !9
  %14 = icmp slt i32 %13, 0
  br i1 %14, label %obj2ast_object.exit, label %15

15:                                               ; preds = %12
  %16 = add nuw i32 %13, 1
  store i32 %16, ptr %0, align 8, !tbaa !9
  br label %obj2ast_object.exit

obj2ast_object.exit:                              ; preds = %7, %9, %12, %15
  %storemerge9.i = phi ptr [ null, %9 ], [ null, %7 ], [ %0, %12 ], [ %0, %15 ]
  %.0.i = phi i32 [ -1, %9 ], [ 0, %7 ], [ 0, %12 ], [ 0, %15 ]
  store ptr %storemerge9.i, ptr %1, align 8, !tbaa !4
  br label %17

17:                                               ; preds = %obj2ast_object.exit, %5
  %.0 = phi i32 [ %.0.i, %obj2ast_object.exit ], [ -1, %5 ]
  ret i32 %.0
}